target datalayout = "e-m:e-p270:32:32-p271:32:32-p272:64:64-i64:64-i128:128-f80:128-n8:16:32:64-S128"
target triple = "x86_64-pc-linux-gnu"

%struct.darktable_t = type { %struct.dt_codepath_t, i32, i32, ptr, ptr, ptr, ptr, ptr, ptr, ptr, ptr, ptr, ptr, ptr, ptr, ptr, ptr, ptr, ptr, ptr, ptr, ptr, ptr, ptr, ptr, ptr, ptr, ptr, ptr, ptr, [64 x %struct.dt_pthread_mutex_t], %struct.dt_pthread_mutex_t, %struct.dt_pthread_mutex_t, %struct.dt_pthread_mutex_t, %struct.dt_pthread_mutex_t, %struct.dt_pthread_mutex_t, ptr, ptr, ptr, ptr, ptr, ptr, ptr, ptr, ptr, ptr, ptr, ptr, ptr, %struct.dt_lua_state_t, ptr, double, ptr, i32, [47 x i32], i32, i32, ptr, ptr, %struct.dt_sys_resources_t, %struct.dt_backthumb_t, %struct.dt_gimp_t }
%struct.dt_codepath_t = type { i8, [3 x i8] }
%struct.dt_pthread_mutex_t = type { %union.pthread_mutex_t }
%union.pthread_mutex_t = type { %struct.__pthread_mutex_s }
%struct.__pthread_mutex_s = type { i32, i32, i32, i32, i32, i16, i16, %struct.__pthread_internal_list }
%struct.__pthread_internal_list = type { ptr, ptr }
%struct.dt_lua_state_t = type { i32 }
%struct.dt_sys_resources_t = type { i64, i64, ptr, ptr, i32 }
%struct.dt_backthumb_t = type { double, double, i32, i32, i32, i32 }
%struct.dt_gimp_t = type { i32, ptr, ptr, i32, i32 }
%struct.dt_action_t = type { i32, ptr, ptr, ptr, ptr, ptr }
%struct.dt_view_t = type { %struct.dt_action_t, ptr, ptr, ptr, ptr, ptr, ptr, ptr, ptr, ptr, ptr, ptr, ptr, ptr, ptr, ptr, ptr, ptr, ptr, ptr, ptr, ptr, [64 x i8], ptr, ptr, i32, i32, float, float, float, float, float, float, float, float }

@darktable = external global %struct.darktable_t, align 8
@.str.37 = private unnamed_addr constant [11 x i8] c"lighttable\00", align 1

; Function Attrs: nounwind uwtable
define void @dt_ctl_switch_mode_to(ptr noundef %0) #0 {
  %2 = alloca ptr, align 8
  %3 = alloca ptr, align 8
  %4 = alloca i32, align 4
  store ptr %0, ptr %2, align 8, !tbaa !83
  call void @llvm.lifetime.start.p0(i64 8, ptr %3) #10
  %5 = load ptr, ptr getelementptr inbounds nuw (%struct.darktable_t, ptr @darktable, i32 0, i32 11), align 8, !tbaa !14
  %6 = call ptr @dt_view_manager_get_current_view(ptr noundef %5)
  store ptr %6, ptr %3, align 8, !tbaa !169
  %7 = load ptr, ptr %3, align 8, !tbaa !169
  %8 = icmp ne ptr %7, null
  br i1 %8, label %9, label %24

9:                                                ; preds = %1
  %10 = load ptr, ptr %2, align 8, !tbaa !83
  %11 = load ptr, ptr %3, align 8, !tbaa !169
  %12 = getelementptr inbounds nuw %struct.dt_view_t, ptr %11, i32 0, i32 22
  %13 = getelementptr inbounds [64 x i8], ptr %12, i64 0, i64 0
  %14 = call i32 @g_ascii_strcasecmp(ptr noundef %10, ptr noundef %13)
  %15 = icmp ne i32 %14, 0
  br i1 %15, label %24, label %16

16:                                               ; preds = %9
  %17 = load ptr, ptr %3, align 8, !tbaa !169
  %18 = getelementptr inbounds nuw %struct.dt_view_t, ptr %17, i32 0, i32 22
  %19 = getelementptr inbounds [64 x i8], ptr %18, i64 0, i64 0
  %20 = call i32 @g_ascii_strcasecmp(ptr noundef %19, ptr noundef @.str.37)
  %21 = icmp ne i32 %20, 0
  br i1 %21, label %22, label %23

22:                                               ; preds = %16
  call void @dt_ctl_switch_mode_to(ptr noundef @.str.37)
  br label %23

23:                                               ; preds = %22, %16
  store i32 1, ptr %4, align 4
  br label %26

24:                                               ; preds = %9, %1
  %25 = load ptr, ptr %2, align 8, !tbaa !83
  call void @g_main_context_invoke(ptr noundef null, ptr noundef @_dt_ctl_switch_mode_to, ptr noundef %25)
  store i32 0, ptr %4, align 4
  br label %26

26:                                               ; preds = %24, %23
  call void @llvm.lifetime.end.p0(i64 8, ptr %3) #10
  %27 = load i32, ptr %4, align 4
  switch i32 %27, label %29 [
    i32 0, label %28
    i32 1, label %28
  ]

28:                                               ; preds = %26, %26
  ret void

29:                                               ; preds = %26
  unreachable
}