; Function Attrs: nounwind uwtable
define void @dt_ctl_switch_mode_to(ptr noundef %0) local_unnamed_addr #0 {
  br label %tailrecurse

tailrecurse:                                      ; preds = %7, %1
  %.tr = phi ptr [ %0, %1 ], [ @.str.37, %7 ]
  %2 = load ptr, ptr getelementptr inbounds nuw (i8, ptr @darktable, i64 80), align 8, !tbaa !6
  %3 = tail call ptr @dt_view_manager_get_current_view(ptr noundef %2) #13
  %.not = icmp eq ptr %3, null
  br i1 %.not, label %9, label %4

4:                                                ; preds = %tailrecurse
  %5 = getelementptr inbounds nuw i8, ptr %3, i64 216
  %6 = tail call i32 @g_ascii_strcasecmp(ptr noundef %.tr, ptr noundef nonnull %5) #13
  %.not5 = icmp eq i32 %6, 0
  br i1 %.not5, label %7, label %9

7:                                                ; preds = %4
  %8 = tail call i32 @g_ascii_strcasecmp(ptr noundef nonnull %5, ptr noundef nonnull @.str.37) #13
  %.not6 = icmp eq i32 %8, 0
  br i1 %.not6, label %.loopexit, label %tailrecurse

9:                                                ; preds = %4, %tailrecurse
  tail call void @g_main_context_invoke(ptr noundef null, ptr noundef nonnull @_dt_ctl_switch_mode_to, ptr noundef %.tr) #13
  br label %.loopexit

.loopexit:                                        ; preds = %7, %9
  ret void
}